
AVR0525_01.elf:     file format elf32-avr

Sections:
Idx Name          Size      VMA       LMA       File off  Algn
  0 .data         00000044  00800100  00000628  000006bc  2**0
                  CONTENTS, ALLOC, LOAD, DATA
  1 .text         00000628  00000000  00000000  00000094  2**1
                  CONTENTS, ALLOC, LOAD, READONLY, CODE
  2 .bss          00000008  00800144  00800144  00000700  2**0
                  ALLOC
  3 .debug_aranges 000000c0  00000000  00000000  00000700  2**0
                  CONTENTS, READONLY, DEBUGGING
  4 .debug_pubnames 000001ea  00000000  00000000  000007c0  2**0
                  CONTENTS, READONLY, DEBUGGING
  5 .debug_info   00000722  00000000  00000000  000009aa  2**0
                  CONTENTS, READONLY, DEBUGGING
  6 .debug_abbrev 0000044c  00000000  00000000  000010cc  2**0
                  CONTENTS, READONLY, DEBUGGING
  7 .debug_line   000006a3  00000000  00000000  00001518  2**0
                  CONTENTS, READONLY, DEBUGGING
  8 .debug_frame  00000190  00000000  00000000  00001bbc  2**2
                  CONTENTS, READONLY, DEBUGGING
  9 .debug_str    00000207  00000000  00000000  00001d4c  2**0
                  CONTENTS, READONLY, DEBUGGING
 10 .debug_loc    00000126  00000000  00000000  00001f53  2**0
                  CONTENTS, READONLY, DEBUGGING

Disassembly of section .text:

00000000 <__vectors>:
   0:	0c 94 46 00 	jmp	0x8c	; 0x8c <__ctors_end>
   4:	0c 94 65 00 	jmp	0xca	; 0xca <__bad_interrupt>
   8:	0c 94 65 00 	jmp	0xca	; 0xca <__bad_interrupt>
   c:	0c 94 65 00 	jmp	0xca	; 0xca <__bad_interrupt>
  10:	0c 94 65 00 	jmp	0xca	; 0xca <__bad_interrupt>
  14:	0c 94 65 00 	jmp	0xca	; 0xca <__bad_interrupt>
  18:	0c 94 65 00 	jmp	0xca	; 0xca <__bad_interrupt>
  1c:	0c 94 65 00 	jmp	0xca	; 0xca <__bad_interrupt>
  20:	0c 94 65 00 	jmp	0xca	; 0xca <__bad_interrupt>
  24:	0c 94 ec 01 	jmp	0x3d8	; 0x3d8 <__vector_9>
  28:	0c 94 65 00 	jmp	0xca	; 0xca <__bad_interrupt>
  2c:	0c 94 65 00 	jmp	0xca	; 0xca <__bad_interrupt>
  30:	0c 94 53 02 	jmp	0x4a6	; 0x4a6 <__vector_12>
  34:	0c 94 65 00 	jmp	0xca	; 0xca <__bad_interrupt>
  38:	0c 94 65 00 	jmp	0xca	; 0xca <__bad_interrupt>
  3c:	0c 94 65 00 	jmp	0xca	; 0xca <__bad_interrupt>
  40:	0c 94 65 00 	jmp	0xca	; 0xca <__bad_interrupt>
  44:	0c 94 65 00 	jmp	0xca	; 0xca <__bad_interrupt>
  48:	0c 94 e0 02 	jmp	0x5c0	; 0x5c0 <__vector_18>
  4c:	0c 94 65 00 	jmp	0xca	; 0xca <__bad_interrupt>
  50:	0c 94 65 00 	jmp	0xca	; 0xca <__bad_interrupt>
  54:	0c 94 65 00 	jmp	0xca	; 0xca <__bad_interrupt>
  58:	0c 94 65 00 	jmp	0xca	; 0xca <__bad_interrupt>
  5c:	0c 94 65 00 	jmp	0xca	; 0xca <__bad_interrupt>
  60:	0c 94 65 00 	jmp	0xca	; 0xca <__bad_interrupt>
  64:	0c 94 65 00 	jmp	0xca	; 0xca <__bad_interrupt>
  68:	0c 94 65 00 	jmp	0xca	; 0xca <__bad_interrupt>
  6c:	0c 94 65 00 	jmp	0xca	; 0xca <__bad_interrupt>
  70:	0c 94 65 00 	jmp	0xca	; 0xca <__bad_interrupt>
  74:	0c 94 65 00 	jmp	0xca	; 0xca <__bad_interrupt>
  78:	0c 94 65 00 	jmp	0xca	; 0xca <__bad_interrupt>
  7c:	0c 94 65 00 	jmp	0xca	; 0xca <__bad_interrupt>
  80:	0c 94 65 00 	jmp	0xca	; 0xca <__bad_interrupt>
  84:	0c 94 65 00 	jmp	0xca	; 0xca <__bad_interrupt>
  88:	0c 94 65 00 	jmp	0xca	; 0xca <__bad_interrupt>

0000008c <__ctors_end>:
  8c:	11 24       	eor	r1, r1
  8e:	1f be       	out	0x3f, r1	; 63
  90:	cf ef       	ldi	r28, 0xFF	; 255
  92:	d0 e1       	ldi	r29, 0x10	; 16
  94:	de bf       	out	0x3e, r29	; 62
  96:	cd bf       	out	0x3d, r28	; 61

00000098 <__do_copy_data>:
  98:	11 e0       	ldi	r17, 0x01	; 1
  9a:	a0 e0       	ldi	r26, 0x00	; 0
  9c:	b1 e0       	ldi	r27, 0x01	; 1
  9e:	e8 e2       	ldi	r30, 0x28	; 40
  a0:	f6 e0       	ldi	r31, 0x06	; 6
  a2:	00 e0       	ldi	r16, 0x00	; 0
  a4:	0b bf       	out	0x3b, r16	; 59
  a6:	02 c0       	rjmp	.+4      	; 0xac <__do_copy_data+0x14>
  a8:	07 90       	elpm	r0, Z+
  aa:	0d 92       	st	X+, r0
  ac:	a4 34       	cpi	r26, 0x44	; 68
  ae:	b1 07       	cpc	r27, r17
  b0:	d9 f7       	brne	.-10     	; 0xa8 <__do_copy_data+0x10>

000000b2 <__do_clear_bss>:
  b2:	11 e0       	ldi	r17, 0x01	; 1
  b4:	a4 e4       	ldi	r26, 0x44	; 68
  b6:	b1 e0       	ldi	r27, 0x01	; 1
  b8:	01 c0       	rjmp	.+2      	; 0xbc <.do_clear_bss_start>

000000ba <.do_clear_bss_loop>:
  ba:	1d 92       	st	X+, r1

000000bc <.do_clear_bss_start>:
  bc:	ac 34       	cpi	r26, 0x4C	; 76
  be:	b1 07       	cpc	r27, r17
  c0:	e1 f7       	brne	.-8      	; 0xba <.do_clear_bss_loop>
  c2:	0e 94 b5 00 	call	0x16a	; 0x16a <main>
  c6:	0c 94 12 03 	jmp	0x624	; 0x624 <_exit>

000000ca <__bad_interrupt>:
  ca:	0c 94 00 00 	jmp	0	; 0x0 <__vectors>

000000ce <Delay>:
              LED_Init();
              TIMER_Init();
              UART_Init();
}
void        Delay(uint32_t  Delay)
{
  ce:	df 93       	push	r29
  d0:	cf 93       	push	r28
  d2:	00 d0       	rcall	.+0      	; 0xd4 <Delay+0x6>
  d4:	00 d0       	rcall	.+0      	; 0xd6 <Delay+0x8>
  d6:	cd b7       	in	r28, 0x3d	; 61
  d8:	de b7       	in	r29, 0x3e	; 62
  da:	9b 01       	movw	r18, r22
  dc:	ac 01       	movw	r20, r24
              volatile  uint32_t  i;
              for(i=0; i<Delay;  i++);
  de:	19 82       	std	Y+1, r1	; 0x01
  e0:	1a 82       	std	Y+2, r1	; 0x02
  e2:	1b 82       	std	Y+3, r1	; 0x03
  e4:	1c 82       	std	Y+4, r1	; 0x04
  e6:	89 81       	ldd	r24, Y+1	; 0x01
  e8:	9a 81       	ldd	r25, Y+2	; 0x02
  ea:	ab 81       	ldd	r26, Y+3	; 0x03
  ec:	bc 81       	ldd	r27, Y+4	; 0x04
  ee:	82 17       	cp	r24, r18
  f0:	93 07       	cpc	r25, r19
  f2:	a4 07       	cpc	r26, r20
  f4:	b5 07       	cpc	r27, r21
  f6:	a0 f4       	brcc	.+40     	; 0x120 <Delay+0x52>
  f8:	89 81       	ldd	r24, Y+1	; 0x01
  fa:	9a 81       	ldd	r25, Y+2	; 0x02
  fc:	ab 81       	ldd	r26, Y+3	; 0x03
  fe:	bc 81       	ldd	r27, Y+4	; 0x04
 100:	01 96       	adiw	r24, 0x01	; 1
 102:	a1 1d       	adc	r26, r1
 104:	b1 1d       	adc	r27, r1
 106:	89 83       	std	Y+1, r24	; 0x01
 108:	9a 83       	std	Y+2, r25	; 0x02
 10a:	ab 83       	std	Y+3, r26	; 0x03
 10c:	bc 83       	std	Y+4, r27	; 0x04
 10e:	89 81       	ldd	r24, Y+1	; 0x01
 110:	9a 81       	ldd	r25, Y+2	; 0x02
 112:	ab 81       	ldd	r26, Y+3	; 0x03
 114:	bc 81       	ldd	r27, Y+4	; 0x04
 116:	82 17       	cp	r24, r18
 118:	93 07       	cpc	r25, r19
 11a:	a4 07       	cpc	r26, r20
 11c:	b5 07       	cpc	r27, r21
 11e:	60 f3       	brcs	.-40     	; 0xf8 <Delay+0x2a>
}
 120:	0f 90       	pop	r0
 122:	0f 90       	pop	r0
 124:	0f 90       	pop	r0
 126:	0f 90       	pop	r0
 128:	cf 91       	pop	r28
 12a:	df 91       	pop	r29
 12c:	08 95       	ret

0000012e <UART_Control>:
void        UART_Control(void)
{
 12e:	df 93       	push	r29
 130:	cf 93       	push	r28
 132:	0f 92       	push	r0
 134:	cd b7       	in	r28, 0x3d	; 61
 136:	de b7       	in	r29, 0x3e	; 62
              uint8_t  Data;
              if(UART_GetChar(&Data)  == 0)   return;
 138:	ce 01       	movw	r24, r28
 13a:	01 96       	adiw	r24, 0x01	; 1
 13c:	0e 94 f2 02 	call	0x5e4	; 0x5e4 <UART_GetChar>
 140:	89 2b       	or	r24, r25
 142:	21 f0       	breq	.+8      	; 0x14c <UART_Control+0x1e>
              UART_PutChar(Data);
 144:	89 81       	ldd	r24, Y+1	; 0x01
 146:	90 e0       	ldi	r25, 0x00	; 0
 148:	0e 94 d0 02 	call	0x5a0	; 0x5a0 <UART_PutChar>
}
 14c:	0f 90       	pop	r0
 14e:	cf 91       	pop	r28
 150:	df 91       	pop	r29
 152:	08 95       	ret

00000154 <Init>:
              }
              return 0;
}
void        Init(void)
{
              BUZZER_Init();
 154:	0e 94 ba 01 	call	0x374	; 0x374 <BUZZER_Init>
              FND_Init();
 158:	0e 94 c3 01 	call	0x386	; 0x386 <FND_Init>
              LED_Init();
 15c:	0e 94 34 02 	call	0x468	; 0x468 <LED_Init>
              TIMER_Init();
 160:	0e 94 49 02 	call	0x492	; 0x492 <TIMER_Init>
              UART_Init();
 164:	0e 94 c5 02 	call	0x58a	; 0x58a <UART_Init>
}
 168:	08 95       	ret

0000016a <main>:
void        Init(void);
void        Delay(uint32_t  Delay);
void        UART_Control(void);

int          main(void)
{
 16a:	df 93       	push	r29
 16c:	cf 93       	push	r28
 16e:	00 d0       	rcall	.+0      	; 0x170 <main+0x6>
 170:	00 d0       	rcall	.+0      	; 0x172 <main+0x8>
 172:	cd b7       	in	r28, 0x3d	; 61
 174:	de b7       	in	r29, 0x3e	; 62
              Init();
 176:	0e 94 aa 00 	call	0x154	; 0x154 <Init>
              LED_On(0x2A);
 17a:	8a e2       	ldi	r24, 0x2A	; 42
 17c:	90 e0       	ldi	r25, 0x00	; 0
 17e:	0e 94 3f 02 	call	0x47e	; 0x47e <LED_On>
              FND_On(9, 0, 0);  Delay(100000);  FND_On(8, 1, 0);  Delay(100000);  
 182:	89 e0       	ldi	r24, 0x09	; 9
 184:	90 e0       	ldi	r25, 0x00	; 0
 186:	60 e0       	ldi	r22, 0x00	; 0
 188:	70 e0       	ldi	r23, 0x00	; 0
 18a:	40 e0       	ldi	r20, 0x00	; 0
 18c:	50 e0       	ldi	r21, 0x00	; 0
 18e:	0e 94 d3 01 	call	0x3a6	; 0x3a6 <FND_On>
              UART_Init();
}
void        Delay(uint32_t  Delay)
{
              volatile  uint32_t  i;
              for(i=0; i<Delay;  i++);
 192:	19 82       	std	Y+1, r1	; 0x01
 194:	1a 82       	std	Y+2, r1	; 0x02
 196:	1b 82       	std	Y+3, r1	; 0x03
 198:	1c 82       	std	Y+4, r1	; 0x04
 19a:	89 81       	ldd	r24, Y+1	; 0x01
 19c:	9a 81       	ldd	r25, Y+2	; 0x02
 19e:	ab 81       	ldd	r26, Y+3	; 0x03
 1a0:	bc 81       	ldd	r27, Y+4	; 0x04
 1a2:	80 5a       	subi	r24, 0xA0	; 160
 1a4:	96 48       	sbci	r25, 0x86	; 134
 1a6:	a1 40       	sbci	r26, 0x01	; 1
 1a8:	b0 40       	sbci	r27, 0x00	; 0
 1aa:	a0 f4       	brcc	.+40     	; 0x1d4 <main+0x6a>
 1ac:	89 81       	ldd	r24, Y+1	; 0x01
 1ae:	9a 81       	ldd	r25, Y+2	; 0x02
 1b0:	ab 81       	ldd	r26, Y+3	; 0x03
 1b2:	bc 81       	ldd	r27, Y+4	; 0x04
 1b4:	01 96       	adiw	r24, 0x01	; 1
 1b6:	a1 1d       	adc	r26, r1
 1b8:	b1 1d       	adc	r27, r1
 1ba:	89 83       	std	Y+1, r24	; 0x01
 1bc:	9a 83       	std	Y+2, r25	; 0x02
 1be:	ab 83       	std	Y+3, r26	; 0x03
 1c0:	bc 83       	std	Y+4, r27	; 0x04
 1c2:	89 81       	ldd	r24, Y+1	; 0x01
 1c4:	9a 81       	ldd	r25, Y+2	; 0x02
 1c6:	ab 81       	ldd	r26, Y+3	; 0x03
 1c8:	bc 81       	ldd	r27, Y+4	; 0x04
 1ca:	80 5a       	subi	r24, 0xA0	; 160
 1cc:	96 48       	sbci	r25, 0x86	; 134
 1ce:	a1 40       	sbci	r26, 0x01	; 1
 1d0:	b0 40       	sbci	r27, 0x00	; 0
 1d2:	60 f3       	brcs	.-40     	; 0x1ac <main+0x42>

int          main(void)
{
              Init();
              LED_On(0x2A);
              FND_On(9, 0, 0);  Delay(100000);  FND_On(8, 1, 0);  Delay(100000);  
 1d4:	88 e0       	ldi	r24, 0x08	; 8
 1d6:	90 e0       	ldi	r25, 0x00	; 0
 1d8:	61 e0       	ldi	r22, 0x01	; 1
 1da:	70 e0       	ldi	r23, 0x00	; 0
 1dc:	40 e0       	ldi	r20, 0x00	; 0
 1de:	50 e0       	ldi	r21, 0x00	; 0
 1e0:	0e 94 d3 01 	call	0x3a6	; 0x3a6 <FND_On>
              UART_Init();
}
void        Delay(uint32_t  Delay)
{
              volatile  uint32_t  i;
              for(i=0; i<Delay;  i++);
 1e4:	19 82       	std	Y+1, r1	; 0x01
 1e6:	1a 82       	std	Y+2, r1	; 0x02
 1e8:	1b 82       	std	Y+3, r1	; 0x03
 1ea:	1c 82       	std	Y+4, r1	; 0x04
 1ec:	89 81       	ldd	r24, Y+1	; 0x01
 1ee:	9a 81       	ldd	r25, Y+2	; 0x02
 1f0:	ab 81       	ldd	r26, Y+3	; 0x03
 1f2:	bc 81       	ldd	r27, Y+4	; 0x04
 1f4:	80 5a       	subi	r24, 0xA0	; 160
 1f6:	96 48       	sbci	r25, 0x86	; 134
 1f8:	a1 40       	sbci	r26, 0x01	; 1
 1fa:	b0 40       	sbci	r27, 0x00	; 0
 1fc:	a0 f4       	brcc	.+40     	; 0x226 <main+0xbc>
 1fe:	89 81       	ldd	r24, Y+1	; 0x01
 200:	9a 81       	ldd	r25, Y+2	; 0x02
 202:	ab 81       	ldd	r26, Y+3	; 0x03
 204:	bc 81       	ldd	r27, Y+4	; 0x04
 206:	01 96       	adiw	r24, 0x01	; 1
 208:	a1 1d       	adc	r26, r1
 20a:	b1 1d       	adc	r27, r1
 20c:	89 83       	std	Y+1, r24	; 0x01
 20e:	9a 83       	std	Y+2, r25	; 0x02
 210:	ab 83       	std	Y+3, r26	; 0x03
 212:	bc 83       	std	Y+4, r27	; 0x04
 214:	89 81       	ldd	r24, Y+1	; 0x01
 216:	9a 81       	ldd	r25, Y+2	; 0x02
 218:	ab 81       	ldd	r26, Y+3	; 0x03
 21a:	bc 81       	ldd	r27, Y+4	; 0x04
 21c:	80 5a       	subi	r24, 0xA0	; 160
 21e:	96 48       	sbci	r25, 0x86	; 134
 220:	a1 40       	sbci	r26, 0x01	; 1
 222:	b0 40       	sbci	r27, 0x00	; 0
 224:	60 f3       	brcs	.-40     	; 0x1fe <main+0x94>
int          main(void)
{
              Init();
              LED_On(0x2A);
              FND_On(9, 0, 0);  Delay(100000);  FND_On(8, 1, 0);  Delay(100000);  
              FND_On(7, 2, 0);  Delay(100000);  FND_On(6, 3, 0);  Delay(100000);  
 226:	87 e0       	ldi	r24, 0x07	; 7
 228:	90 e0       	ldi	r25, 0x00	; 0
 22a:	62 e0       	ldi	r22, 0x02	; 2
 22c:	70 e0       	ldi	r23, 0x00	; 0
 22e:	40 e0       	ldi	r20, 0x00	; 0
 230:	50 e0       	ldi	r21, 0x00	; 0
 232:	0e 94 d3 01 	call	0x3a6	; 0x3a6 <FND_On>
              UART_Init();
}
void        Delay(uint32_t  Delay)
{
              volatile  uint32_t  i;
              for(i=0; i<Delay;  i++);
 236:	19 82       	std	Y+1, r1	; 0x01
 238:	1a 82       	std	Y+2, r1	; 0x02
 23a:	1b 82       	std	Y+3, r1	; 0x03
 23c:	1c 82       	std	Y+4, r1	; 0x04
 23e:	89 81       	ldd	r24, Y+1	; 0x01
 240:	9a 81       	ldd	r25, Y+2	; 0x02
 242:	ab 81       	ldd	r26, Y+3	; 0x03
 244:	bc 81       	ldd	r27, Y+4	; 0x04
 246:	80 5a       	subi	r24, 0xA0	; 160
 248:	96 48       	sbci	r25, 0x86	; 134
 24a:	a1 40       	sbci	r26, 0x01	; 1
 24c:	b0 40       	sbci	r27, 0x00	; 0
 24e:	a0 f4       	brcc	.+40     	; 0x278 <main+0x10e>
 250:	89 81       	ldd	r24, Y+1	; 0x01
 252:	9a 81       	ldd	r25, Y+2	; 0x02
 254:	ab 81       	ldd	r26, Y+3	; 0x03
 256:	bc 81       	ldd	r27, Y+4	; 0x04
 258:	01 96       	adiw	r24, 0x01	; 1
 25a:	a1 1d       	adc	r26, r1
 25c:	b1 1d       	adc	r27, r1
 25e:	89 83       	std	Y+1, r24	; 0x01
 260:	9a 83       	std	Y+2, r25	; 0x02
 262:	ab 83       	std	Y+3, r26	; 0x03
 264:	bc 83       	std	Y+4, r27	; 0x04
 266:	89 81       	ldd	r24, Y+1	; 0x01
 268:	9a 81       	ldd	r25, Y+2	; 0x02
 26a:	ab 81       	ldd	r26, Y+3	; 0x03
 26c:	bc 81       	ldd	r27, Y+4	; 0x04
 26e:	80 5a       	subi	r24, 0xA0	; 160
 270:	96 48       	sbci	r25, 0x86	; 134
 272:	a1 40       	sbci	r26, 0x01	; 1
 274:	b0 40       	sbci	r27, 0x00	; 0
 276:	60 f3       	brcs	.-40     	; 0x250 <main+0xe6>
int          main(void)
{
              Init();
              LED_On(0x2A);
              FND_On(9, 0, 0);  Delay(100000);  FND_On(8, 1, 0);  Delay(100000);  
              FND_On(7, 2, 0);  Delay(100000);  FND_On(6, 3, 0);  Delay(100000);  
 278:	86 e0       	ldi	r24, 0x06	; 6
 27a:	90 e0       	ldi	r25, 0x00	; 0
 27c:	63 e0       	ldi	r22, 0x03	; 3
 27e:	70 e0       	ldi	r23, 0x00	; 0
 280:	40 e0       	ldi	r20, 0x00	; 0
 282:	50 e0       	ldi	r21, 0x00	; 0
 284:	0e 94 d3 01 	call	0x3a6	; 0x3a6 <FND_On>
              UART_Init();
}
void        Delay(uint32_t  Delay)
{
              volatile  uint32_t  i;
              for(i=0; i<Delay;  i++);
 288:	19 82       	std	Y+1, r1	; 0x01
 28a:	1a 82       	std	Y+2, r1	; 0x02
 28c:	1b 82       	std	Y+3, r1	; 0x03
 28e:	1c 82       	std	Y+4, r1	; 0x04
 290:	89 81       	ldd	r24, Y+1	; 0x01
 292:	9a 81       	ldd	r25, Y+2	; 0x02
 294:	ab 81       	ldd	r26, Y+3	; 0x03
 296:	bc 81       	ldd	r27, Y+4	; 0x04
 298:	80 5a       	subi	r24, 0xA0	; 160
 29a:	96 48       	sbci	r25, 0x86	; 134
 29c:	a1 40       	sbci	r26, 0x01	; 1
 29e:	b0 40       	sbci	r27, 0x00	; 0
 2a0:	a0 f4       	brcc	.+40     	; 0x2ca <main+0x160>
 2a2:	89 81       	ldd	r24, Y+1	; 0x01
 2a4:	9a 81       	ldd	r25, Y+2	; 0x02
 2a6:	ab 81       	ldd	r26, Y+3	; 0x03
 2a8:	bc 81       	ldd	r27, Y+4	; 0x04
 2aa:	01 96       	adiw	r24, 0x01	; 1
 2ac:	a1 1d       	adc	r26, r1
 2ae:	b1 1d       	adc	r27, r1
 2b0:	89 83       	std	Y+1, r24	; 0x01
 2b2:	9a 83       	std	Y+2, r25	; 0x02
 2b4:	ab 83       	std	Y+3, r26	; 0x03
 2b6:	bc 83       	std	Y+4, r27	; 0x04
 2b8:	89 81       	ldd	r24, Y+1	; 0x01
 2ba:	9a 81       	ldd	r25, Y+2	; 0x02
 2bc:	ab 81       	ldd	r26, Y+3	; 0x03
 2be:	bc 81       	ldd	r27, Y+4	; 0x04
 2c0:	80 5a       	subi	r24, 0xA0	; 160
 2c2:	96 48       	sbci	r25, 0x86	; 134
 2c4:	a1 40       	sbci	r26, 0x01	; 1
 2c6:	b0 40       	sbci	r27, 0x00	; 0
 2c8:	60 f3       	brcs	.-40     	; 0x2a2 <main+0x138>
{
              Init();
              LED_On(0x2A);
              FND_On(9, 0, 0);  Delay(100000);  FND_On(8, 1, 0);  Delay(100000);  
              FND_On(7, 2, 0);  Delay(100000);  FND_On(6, 3, 0);  Delay(100000);  
              UART_PutChar('\r');  UART_PutChar('\n');  
 2ca:	8d e0       	ldi	r24, 0x0D	; 13
 2cc:	90 e0       	ldi	r25, 0x00	; 0
 2ce:	0e 94 d0 02 	call	0x5a0	; 0x5a0 <UART_PutChar>
 2d2:	8a e0       	ldi	r24, 0x0A	; 10
 2d4:	90 e0       	ldi	r25, 0x00	; 0
 2d6:	0e 94 d0 02 	call	0x5a0	; 0x5a0 <UART_PutChar>
              UART_PutChar('H');  UART_PutChar('e'); UART_PutChar('l');  UART_PutChar('l'); UART_PutChar('o');
 2da:	88 e4       	ldi	r24, 0x48	; 72
 2dc:	90 e0       	ldi	r25, 0x00	; 0
 2de:	0e 94 d0 02 	call	0x5a0	; 0x5a0 <UART_PutChar>
 2e2:	85 e6       	ldi	r24, 0x65	; 101
 2e4:	90 e0       	ldi	r25, 0x00	; 0
 2e6:	0e 94 d0 02 	call	0x5a0	; 0x5a0 <UART_PutChar>
 2ea:	8c e6       	ldi	r24, 0x6C	; 108
 2ec:	90 e0       	ldi	r25, 0x00	; 0
 2ee:	0e 94 d0 02 	call	0x5a0	; 0x5a0 <UART_PutChar>
 2f2:	8c e6       	ldi	r24, 0x6C	; 108
 2f4:	90 e0       	ldi	r25, 0x00	; 0
 2f6:	0e 94 d0 02 	call	0x5a0	; 0x5a0 <UART_PutChar>
 2fa:	8f e6       	ldi	r24, 0x6F	; 111
 2fc:	90 e0       	ldi	r25, 0x00	; 0
 2fe:	0e 94 d0 02 	call	0x5a0	; 0x5a0 <UART_PutChar>
              UART_PutChar('\r');  UART_PutChar('\n');  
 302:	8d e0       	ldi	r24, 0x0D	; 13
 304:	90 e0       	ldi	r25, 0x00	; 0
 306:	0e 94 d0 02 	call	0x5a0	; 0x5a0 <UART_PutChar>
 30a:	8a e0       	ldi	r24, 0x0A	; 10
 30c:	90 e0       	ldi	r25, 0x00	; 0
 30e:	0e 94 d0 02 	call	0x5a0	; 0x5a0 <UART_PutChar>
              UART_PutString("\r\n ~~~~ ATmege128 Timer1 Excution Test ~~~~ \r\n");
 312:	80 e0       	ldi	r24, 0x00	; 0
 314:	91 e0       	ldi	r25, 0x01	; 1
 316:	0e 94 d4 02 	call	0x5a8	; 0x5a8 <UART_PutString>
              BUZZER_On(1);  Delay(100000); BUZZER_On(0);  
 31a:	81 e0       	ldi	r24, 0x01	; 1
 31c:	90 e0       	ldi	r25, 0x00	; 0
 31e:	0e 94 bd 01 	call	0x37a	; 0x37a <BUZZER_On>
              UART_Init();
}
void        Delay(uint32_t  Delay)
{
              volatile  uint32_t  i;
              for(i=0; i<Delay;  i++);
 322:	19 82       	std	Y+1, r1	; 0x01
 324:	1a 82       	std	Y+2, r1	; 0x02
 326:	1b 82       	std	Y+3, r1	; 0x03
 328:	1c 82       	std	Y+4, r1	; 0x04
 32a:	89 81       	ldd	r24, Y+1	; 0x01
 32c:	9a 81       	ldd	r25, Y+2	; 0x02
 32e:	ab 81       	ldd	r26, Y+3	; 0x03
 330:	bc 81       	ldd	r27, Y+4	; 0x04
 332:	80 5a       	subi	r24, 0xA0	; 160
 334:	96 48       	sbci	r25, 0x86	; 134
 336:	a1 40       	sbci	r26, 0x01	; 1
 338:	b0 40       	sbci	r27, 0x00	; 0
 33a:	a0 f4       	brcc	.+40     	; 0x364 <main+0x1fa>
 33c:	89 81       	ldd	r24, Y+1	; 0x01
 33e:	9a 81       	ldd	r25, Y+2	; 0x02
 340:	ab 81       	ldd	r26, Y+3	; 0x03
 342:	bc 81       	ldd	r27, Y+4	; 0x04
 344:	01 96       	adiw	r24, 0x01	; 1
 346:	a1 1d       	adc	r26, r1
 348:	b1 1d       	adc	r27, r1
 34a:	89 83       	std	Y+1, r24	; 0x01
 34c:	9a 83       	std	Y+2, r25	; 0x02
 34e:	ab 83       	std	Y+3, r26	; 0x03
 350:	bc 83       	std	Y+4, r27	; 0x04
 352:	89 81       	ldd	r24, Y+1	; 0x01
 354:	9a 81       	ldd	r25, Y+2	; 0x02
 356:	ab 81       	ldd	r26, Y+3	; 0x03
 358:	bc 81       	ldd	r27, Y+4	; 0x04
 35a:	80 5a       	subi	r24, 0xA0	; 160
 35c:	96 48       	sbci	r25, 0x86	; 134
 35e:	a1 40       	sbci	r26, 0x01	; 1
 360:	b0 40       	sbci	r27, 0x00	; 0
 362:	60 f3       	brcs	.-40     	; 0x33c <main+0x1d2>
              FND_On(7, 2, 0);  Delay(100000);  FND_On(6, 3, 0);  Delay(100000);  
              UART_PutChar('\r');  UART_PutChar('\n');  
              UART_PutChar('H');  UART_PutChar('e'); UART_PutChar('l');  UART_PutChar('l'); UART_PutChar('o');
              UART_PutChar('\r');  UART_PutChar('\n');  
              UART_PutString("\r\n ~~~~ ATmege128 Timer1 Excution Test ~~~~ \r\n");
              BUZZER_On(1);  Delay(100000); BUZZER_On(0);  
 364:	80 e0       	ldi	r24, 0x00	; 0
 366:	90 e0       	ldi	r25, 0x00	; 0
 368:	0e 94 bd 01 	call	0x37a	; 0x37a <BUZZER_On>
              sei();
 36c:	78 94       	sei
              while(1){
                     UART_Control();
 36e:	0e 94 97 00 	call	0x12e	; 0x12e <UART_Control>
 372:	fd cf       	rjmp	.-6      	; 0x36e <main+0x204>

00000374 <BUZZER_Init>:
#include <avr/io.h>
#include <stdint.h>

void BUZZER_Init(void){

	DDRB |= 0x01;
 374:	b8 9a       	sbi	0x17, 0	; 23
	PORTB &= 0xFE;
 376:	c0 98       	cbi	0x18, 0	; 24
}
 378:	08 95       	ret

0000037a <BUZZER_On>:

void BUZZER_On(uint8_t OnOff){

	if(OnOff) PORTB |= 0x01;
 37a:	88 23       	and	r24, r24
 37c:	11 f4       	brne	.+4      	; 0x382 <BUZZER_On+0x8>
	else PORTB &= 0xFE;
 37e:	c0 98       	cbi	0x18, 0	; 24
 380:	08 95       	ret
	PORTB &= 0xFE;
}

void BUZZER_On(uint8_t OnOff){

	if(OnOff) PORTB |= 0x01;
 382:	c0 9a       	sbi	0x18, 0	; 24
 384:	08 95       	ret

00000386 <FND_Init>:
const  uint8_t  FND_Dot[2]          = {0x80, 0x00};
uint8_t            FND_Buffer[4]      = {0xFF, 0xFF, 0xFF, 0xFF};

void       FND_Init(void)
{
             DDRD   |=  0xFF;
 386:	81 b3       	in	r24, 0x11	; 17
 388:	8f ef       	ldi	r24, 0xFF	; 255
 38a:	81 bb       	out	0x11, r24	; 17
             DDRG   |=  0x1B;
 38c:	e4 e6       	ldi	r30, 0x64	; 100
 38e:	f0 e0       	ldi	r31, 0x00	; 0
 390:	80 81       	ld	r24, Z
 392:	8b 61       	ori	r24, 0x1B	; 27
 394:	80 83       	st	Z, r24
             TCCR2   =  0x0D;
 396:	8d e0       	ldi	r24, 0x0D	; 13
 398:	85 bd       	out	0x25, r24	; 37
             OCR2    =  38;
 39a:	86 e2       	ldi	r24, 0x26	; 38
 39c:	83 bd       	out	0x23, r24	; 35
             TIMSK  |=  (1<<OCIE2);
 39e:	87 b7       	in	r24, 0x37	; 55
 3a0:	80 68       	ori	r24, 0x80	; 128
 3a2:	87 bf       	out	0x37, r24	; 55
}
 3a4:	08 95       	ret

000003a6 <FND_On>:
void       FND_On(uint8_t  Num, uint8_t Digit, uint8_t  Dot)
{
             PORTD  =  (FND_Font[Num]  &  0x7F)   |  FND_Dot[Dot];
 3a6:	ad e3       	ldi	r26, 0x3D	; 61
 3a8:	b1 e0       	ldi	r27, 0x01	; 1
 3aa:	a4 0f       	add	r26, r20
 3ac:	b1 1d       	adc	r27, r1
 3ae:	ef e2       	ldi	r30, 0x2F	; 47
 3b0:	f1 e0       	ldi	r31, 0x01	; 1
 3b2:	e8 0f       	add	r30, r24
 3b4:	f1 1d       	adc	r31, r1
 3b6:	80 81       	ld	r24, Z
 3b8:	8f 77       	andi	r24, 0x7F	; 127
 3ba:	9c 91       	ld	r25, X
 3bc:	89 2b       	or	r24, r25
 3be:	82 bb       	out	0x12, r24	; 18
             PORTG  =  (PORTG                & 0xE4)   |  FND_Common[Digit];
 3c0:	a5 e6       	ldi	r26, 0x65	; 101
 3c2:	b0 e0       	ldi	r27, 0x00	; 0
 3c4:	8c 91       	ld	r24, X
 3c6:	e9 e3       	ldi	r30, 0x39	; 57
 3c8:	f1 e0       	ldi	r31, 0x01	; 1
 3ca:	e6 0f       	add	r30, r22
 3cc:	f1 1d       	adc	r31, r1
 3ce:	84 7e       	andi	r24, 0xE4	; 228
 3d0:	90 81       	ld	r25, Z
 3d2:	89 2b       	or	r24, r25
 3d4:	8c 93       	st	X, r24
}
 3d6:	08 95       	ret

000003d8 <__vector_9>:
ISR(TIMER2_COMP_vect)   //5msec
{
 3d8:	1f 92       	push	r1
 3da:	0f 92       	push	r0
 3dc:	0f b6       	in	r0, 0x3f	; 63
 3de:	0f 92       	push	r0
 3e0:	0b b6       	in	r0, 0x3b	; 59
 3e2:	0f 92       	push	r0
 3e4:	11 24       	eor	r1, r1
 3e6:	8f 93       	push	r24
 3e8:	9f 93       	push	r25
 3ea:	af 93       	push	r26
 3ec:	bf 93       	push	r27
 3ee:	ef 93       	push	r30
 3f0:	ff 93       	push	r31
            static  uint8_t  Digit  =  0;
            Digit++;
            Digit   %=   4;  
 3f2:	e0 91 44 01 	lds	r30, 0x0144
 3f6:	ef 5f       	subi	r30, 0xFF	; 255
 3f8:	e3 70       	andi	r30, 0x03	; 3
 3fa:	e0 93 44 01 	sts	0x0144, r30
            PORTD  =   FND_Buffer[Digit];
 3fe:	f0 e0       	ldi	r31, 0x00	; 0
 400:	df 01       	movw	r26, r30
 402:	a1 5c       	subi	r26, 0xC1	; 193
 404:	be 4f       	sbci	r27, 0xFE	; 254
 406:	8c 91       	ld	r24, X
 408:	82 bb       	out	0x12, r24	; 18
            PORTG  =   (PORTG  &  0xE4)  |  FND_Common[Digit];
 40a:	a5 e6       	ldi	r26, 0x65	; 101
 40c:	b0 e0       	ldi	r27, 0x00	; 0
 40e:	8c 91       	ld	r24, X
 410:	e7 5c       	subi	r30, 0xC7	; 199
 412:	fe 4f       	sbci	r31, 0xFE	; 254
 414:	84 7e       	andi	r24, 0xE4	; 228
 416:	90 81       	ld	r25, Z
 418:	89 2b       	or	r24, r25
 41a:	8c 93       	st	X, r24
}
 41c:	ff 91       	pop	r31
 41e:	ef 91       	pop	r30
 420:	bf 91       	pop	r27
 422:	af 91       	pop	r26
 424:	9f 91       	pop	r25
 426:	8f 91       	pop	r24
 428:	0f 90       	pop	r0
 42a:	0b be       	out	0x3b, r0	; 59
 42c:	0f 90       	pop	r0
 42e:	0f be       	out	0x3f, r0	; 63
 430:	0f 90       	pop	r0
 432:	1f 90       	pop	r1
 434:	18 95       	reti

00000436 <FND_Write>:
void       FND_Write(uint8_t  Num, uint8_t Digit, uint8_t  Dot)   //FND Dynamic 구동 방식
{
             if(Dot)   FND_Buffer[Digit]  =  FND_Font[Num]    &  0x7F;
 436:	44 23       	and	r20, r20
 438:	59 f4       	brne	.+22     	; 0x450 <FND_Write+0x1a>
             else       FND_Buffer[Digit]  =  FND_Font[Num];
 43a:	e6 2f       	mov	r30, r22
 43c:	f0 e0       	ldi	r31, 0x00	; 0
 43e:	e1 5c       	subi	r30, 0xC1	; 193
 440:	fe 4f       	sbci	r31, 0xFE	; 254
 442:	a8 2f       	mov	r26, r24
 444:	b0 e0       	ldi	r27, 0x00	; 0
 446:	a1 5d       	subi	r26, 0xD1	; 209
 448:	be 4f       	sbci	r27, 0xFE	; 254
 44a:	8c 91       	ld	r24, X
 44c:	80 83       	st	Z, r24
 44e:	08 95       	ret
            PORTD  =   FND_Buffer[Digit];
            PORTG  =   (PORTG  &  0xE4)  |  FND_Common[Digit];
}
void       FND_Write(uint8_t  Num, uint8_t Digit, uint8_t  Dot)   //FND Dynamic 구동 방식
{
             if(Dot)   FND_Buffer[Digit]  =  FND_Font[Num]    &  0x7F;
 450:	e6 2f       	mov	r30, r22
 452:	f0 e0       	ldi	r31, 0x00	; 0
 454:	e1 5c       	subi	r30, 0xC1	; 193
 456:	fe 4f       	sbci	r31, 0xFE	; 254
 458:	a8 2f       	mov	r26, r24
 45a:	b0 e0       	ldi	r27, 0x00	; 0
 45c:	a1 5d       	subi	r26, 0xD1	; 209
 45e:	be 4f       	sbci	r27, 0xFE	; 254
 460:	8c 91       	ld	r24, X
 462:	8f 77       	andi	r24, 0x7F	; 127
 464:	80 83       	st	Z, r24
 466:	08 95       	ret

00000468 <LED_Init>:
#include <avr/io.h>
#include <stdint.h>

void LED_Init(void){

	DDRF |= 0xFC;
 468:	e1 e6       	ldi	r30, 0x61	; 97
 46a:	f0 e0       	ldi	r31, 0x00	; 0
 46c:	80 81       	ld	r24, Z
 46e:	8c 6f       	ori	r24, 0xFC	; 252
 470:	80 83       	st	Z, r24
	PORTF &= 0xFC;
 472:	e2 e6       	ldi	r30, 0x62	; 98
 474:	f0 e0       	ldi	r31, 0x00	; 0
 476:	80 81       	ld	r24, Z
 478:	8c 7f       	andi	r24, 0xFC	; 252
 47a:	80 83       	st	Z, r24
}
 47c:	08 95       	ret

0000047e <LED_On>:

void LED_On(uint8_t OnOff){

	PORTF  =  (PORTF  |  0xFC)  &  (~(OnOff<<2));
 47e:	e2 e6       	ldi	r30, 0x62	; 98
 480:	f0 e0       	ldi	r31, 0x00	; 0
 482:	90 81       	ld	r25, Z
 484:	88 0f       	add	r24, r24
 486:	88 0f       	add	r24, r24
 488:	80 95       	com	r24
 48a:	9c 6f       	ori	r25, 0xFC	; 252
 48c:	98 23       	and	r25, r24
 48e:	90 83       	st	Z, r25

}
 490:	08 95       	ret

00000492 <TIMER_Init>:
                                               // OCR1AH  +  OCR1AL(비교일치레지스터) : 0 ~ 65535값을 결정함.
                                               // Timer/Count3 --> 16bit T/C(TCNT3AH, TCNT3AL : 0,1,2,3,4,--,65535)
                                               // OCR3AH  +  OCR3AL(비교일치레지스터) : 0 ~ 65535값을 결정함.
void       TIMER_Init(void)
{                                         // hgfe  dcba                              mlba
             TCCR1A    =  0x00;  // 0000 0000  :  1) : CTC Mode -> 0100
 492:	1f bc       	out	0x2f, r1	; 47
                                          //                                        kj i
                                          // ponm l kj i    2) : 분주비 ->100 -> 256분주
             TCCR1B    =  0x0C;  // 0000  1100    3) : 원하는 시간(○), 출력 바깥으로 보낼 것인지(x) 선택 
 494:	8c e0       	ldi	r24, 0x0C	; 12
 496:	8e bd       	out	0x2e, r24	; 46
                                          //                           hg fe   dc
                                          //                            A  B    C
                                          //                            ○ x     x
                                          //                      4)원하는시간 = T = 1/f = (1/8000000) * 256 * 3125  = (1/8*10^6) * 8*10^5 =0.1sec
                                          //                                                       = 100msec 
             OCR1AH   =  0x0C;    
 498:	8b bd       	out	0x2b, r24	; 43
             OCR1AL    =  0x35;  // OCR1A  = OCR1AH + OCR1AL = 0x0C35 = 0b0000110000110101 = 3125 비교일치값
 49a:	85 e3       	ldi	r24, 0x35	; 53
 49c:	8a bd       	out	0x2a, r24	; 42

             TIMSK      |=  (1<<OCIE1A);  // 0001 0000, TCNT1A = OCR1A --> 인터럽트서비스루틴가라.(명령)
 49e:	87 b7       	in	r24, 0x37	; 55
 4a0:	80 61       	ori	r24, 0x10	; 16
 4a2:	87 bf       	out	0x37, r24	; 55
}
 4a4:	08 95       	ret

000004a6 <__vector_12>:
ISR(TIMER1_COMPA_vect)  //0.1 = 100msec
{
 4a6:	1f 92       	push	r1
 4a8:	0f 92       	push	r0
 4aa:	0f b6       	in	r0, 0x3f	; 63
 4ac:	0f 92       	push	r0
 4ae:	0b b6       	in	r0, 0x3b	; 59
 4b0:	0f 92       	push	r0
 4b2:	11 24       	eor	r1, r1
 4b4:	2f 93       	push	r18
 4b6:	3f 93       	push	r19
 4b8:	4f 93       	push	r20
 4ba:	5f 93       	push	r21
 4bc:	6f 93       	push	r22
 4be:	7f 93       	push	r23
 4c0:	8f 93       	push	r24
 4c2:	9f 93       	push	r25
 4c4:	af 93       	push	r26
 4c6:	bf 93       	push	r27
 4c8:	ef 93       	push	r30
 4ca:	ff 93       	push	r31
       static  uint16_t  Count  =  0;
       Count++;
 4cc:	80 91 48 01 	lds	r24, 0x0148
 4d0:	90 91 49 01 	lds	r25, 0x0149
 4d4:	01 96       	adiw	r24, 0x01	; 1
 4d6:	90 93 49 01 	sts	0x0149, r25
 4da:	80 93 48 01 	sts	0x0148, r24
       FND_Write(Count          %  10, 0,  0);    //1의 자리값
 4de:	6a e0       	ldi	r22, 0x0A	; 10
 4e0:	70 e0       	ldi	r23, 0x00	; 0
 4e2:	0e 94 fe 02 	call	0x5fc	; 0x5fc <__udivmodhi4>
 4e6:	60 e0       	ldi	r22, 0x00	; 0
 4e8:	70 e0       	ldi	r23, 0x00	; 0
 4ea:	40 e0       	ldi	r20, 0x00	; 0
 4ec:	50 e0       	ldi	r21, 0x00	; 0
 4ee:	0e 94 1b 02 	call	0x436	; 0x436 <FND_Write>
       FND_Write(Count/10     %  10, 1,  0);    //10의 자리값
 4f2:	80 91 48 01 	lds	r24, 0x0148
 4f6:	90 91 49 01 	lds	r25, 0x0149
 4fa:	6a e0       	ldi	r22, 0x0A	; 10
 4fc:	70 e0       	ldi	r23, 0x00	; 0
 4fe:	0e 94 fe 02 	call	0x5fc	; 0x5fc <__udivmodhi4>
 502:	cb 01       	movw	r24, r22
 504:	6a e0       	ldi	r22, 0x0A	; 10
 506:	70 e0       	ldi	r23, 0x00	; 0
 508:	0e 94 fe 02 	call	0x5fc	; 0x5fc <__udivmodhi4>
 50c:	61 e0       	ldi	r22, 0x01	; 1
 50e:	70 e0       	ldi	r23, 0x00	; 0
 510:	40 e0       	ldi	r20, 0x00	; 0
 512:	50 e0       	ldi	r21, 0x00	; 0
 514:	0e 94 1b 02 	call	0x436	; 0x436 <FND_Write>
       FND_Write(Count/100    %  10, 2,  0);    //100의 자리값
 518:	80 91 48 01 	lds	r24, 0x0148
 51c:	90 91 49 01 	lds	r25, 0x0149
 520:	64 e6       	ldi	r22, 0x64	; 100
 522:	70 e0       	ldi	r23, 0x00	; 0
 524:	0e 94 fe 02 	call	0x5fc	; 0x5fc <__udivmodhi4>
 528:	cb 01       	movw	r24, r22
 52a:	6a e0       	ldi	r22, 0x0A	; 10
 52c:	70 e0       	ldi	r23, 0x00	; 0
 52e:	0e 94 fe 02 	call	0x5fc	; 0x5fc <__udivmodhi4>
 532:	62 e0       	ldi	r22, 0x02	; 2
 534:	70 e0       	ldi	r23, 0x00	; 0
 536:	40 e0       	ldi	r20, 0x00	; 0
 538:	50 e0       	ldi	r21, 0x00	; 0
 53a:	0e 94 1b 02 	call	0x436	; 0x436 <FND_Write>
       FND_Write(Count/1000  %  10, 3,  0);    //1000의 자리값
 53e:	80 91 48 01 	lds	r24, 0x0148
 542:	90 91 49 01 	lds	r25, 0x0149
 546:	68 ee       	ldi	r22, 0xE8	; 232
 548:	73 e0       	ldi	r23, 0x03	; 3
 54a:	0e 94 fe 02 	call	0x5fc	; 0x5fc <__udivmodhi4>
 54e:	cb 01       	movw	r24, r22
 550:	6a e0       	ldi	r22, 0x0A	; 10
 552:	70 e0       	ldi	r23, 0x00	; 0
 554:	0e 94 fe 02 	call	0x5fc	; 0x5fc <__udivmodhi4>
 558:	63 e0       	ldi	r22, 0x03	; 3
 55a:	70 e0       	ldi	r23, 0x00	; 0
 55c:	40 e0       	ldi	r20, 0x00	; 0
 55e:	50 e0       	ldi	r21, 0x00	; 0
 560:	0e 94 1b 02 	call	0x436	; 0x436 <FND_Write>
}
 564:	ff 91       	pop	r31
 566:	ef 91       	pop	r30
 568:	bf 91       	pop	r27
 56a:	af 91       	pop	r26
 56c:	9f 91       	pop	r25
 56e:	8f 91       	pop	r24
 570:	7f 91       	pop	r23
 572:	6f 91       	pop	r22
 574:	5f 91       	pop	r21
 576:	4f 91       	pop	r20
 578:	3f 91       	pop	r19
 57a:	2f 91       	pop	r18
 57c:	0f 90       	pop	r0
 57e:	0b be       	out	0x3b, r0	; 59
 580:	0f 90       	pop	r0
 582:	0f be       	out	0x3f, r0	; 63
 584:	0f 90       	pop	r0
 586:	1f 90       	pop	r1
 588:	18 95       	reti

0000058a <UART_Init>:
uint8_t UART_Buffer;
uint8_t UART_Flag = 0;

void UART_Init(void){

	UCSR0A = 0x00;
 58a:	1b b8       	out	0x0b, r1	; 11
	UCSR0B = 0x98;
 58c:	88 e9       	ldi	r24, 0x98	; 152
 58e:	8a b9       	out	0x0a, r24	; 10
	UCSR0C = 0x06;
 590:	86 e0       	ldi	r24, 0x06	; 6
 592:	80 93 95 00 	sts	0x0095, r24
	UBRR0H = 0;
 596:	10 92 90 00 	sts	0x0090, r1
	UBRR0L = 12;
 59a:	8c e0       	ldi	r24, 0x0C	; 12
 59c:	89 b9       	out	0x09, r24	; 9
}
 59e:	08 95       	ret

000005a0 <UART_PutChar>:

void UART_PutChar(uint8_t Data){

	while ((UCSR0A & 0x20) == 0);
 5a0:	5d 9b       	sbis	0x0b, 5	; 11
 5a2:	fe cf       	rjmp	.-4      	; 0x5a0 <UART_PutChar>
	UDR0 =Data;
 5a4:	8c b9       	out	0x0c, r24	; 12
}
 5a6:	08 95       	ret

000005a8 <UART_PutString>:

void UART_PutString(const char* String){
 5a8:	fc 01       	movw	r30, r24

	while(*String){
 5aa:	80 81       	ld	r24, Z
 5ac:	88 23       	and	r24, r24
 5ae:	39 f0       	breq	.+14     	; 0x5be <UART_PutString+0x16>
	UBRR0L = 12;
}

void UART_PutChar(uint8_t Data){

	while ((UCSR0A & 0x20) == 0);
 5b0:	5d 9b       	sbis	0x0b, 5	; 11
 5b2:	fe cf       	rjmp	.-4      	; 0x5b0 <UART_PutString+0x8>
	UDR0 =Data;
 5b4:	8c b9       	out	0x0c, r24	; 12

void UART_PutString(const char* String){

	while(*String){
	UART_PutChar(*String);
	String++;
 5b6:	31 96       	adiw	r30, 0x01	; 1
	UDR0 =Data;
}

void UART_PutString(const char* String){

	while(*String){
 5b8:	80 81       	ld	r24, Z
 5ba:	88 23       	and	r24, r24
 5bc:	c9 f7       	brne	.-14     	; 0x5b0 <UART_PutString+0x8>
 5be:	08 95       	ret

000005c0 <__vector_18>:
	UART_PutChar(*String);
	String++;
	}
}

ISR(USART0_RX_vect){
 5c0:	1f 92       	push	r1
 5c2:	0f 92       	push	r0
 5c4:	0f b6       	in	r0, 0x3f	; 63
 5c6:	0f 92       	push	r0
 5c8:	11 24       	eor	r1, r1
 5ca:	8f 93       	push	r24

	UART_Buffer = UDR0;
 5cc:	8c b1       	in	r24, 0x0c	; 12
 5ce:	80 93 4b 01 	sts	0x014B, r24
	UART_Flag = 1;
 5d2:	81 e0       	ldi	r24, 0x01	; 1
 5d4:	80 93 4a 01 	sts	0x014A, r24
}
 5d8:	8f 91       	pop	r24
 5da:	0f 90       	pop	r0
 5dc:	0f be       	out	0x3f, r0	; 63
 5de:	0f 90       	pop	r0
 5e0:	1f 90       	pop	r1
 5e2:	18 95       	reti

000005e4 <UART_GetChar>:

uint8_t UART_GetChar(uint8_t *Data){
 5e4:	fc 01       	movw	r30, r24

	if(UART_Flag){
 5e6:	80 91 4a 01 	lds	r24, 0x014A
 5ea:	88 23       	and	r24, r24
 5ec:	31 f0       	breq	.+12     	; 0x5fa <UART_GetChar+0x16>
		*Data = UART_Buffer;
 5ee:	80 91 4b 01 	lds	r24, 0x014B
 5f2:	80 83       	st	Z, r24
		UART_Flag = 0;
 5f4:	10 92 4a 01 	sts	0x014A, r1
 5f8:	81 e0       	ldi	r24, 0x01	; 1
		return 1;
	}else{
		return 0;
	}
}
 5fa:	08 95       	ret

000005fc <__udivmodhi4>:
 5fc:	aa 1b       	sub	r26, r26
 5fe:	bb 1b       	sub	r27, r27
 600:	51 e1       	ldi	r21, 0x11	; 17
 602:	07 c0       	rjmp	.+14     	; 0x612 <__udivmodhi4_ep>

00000604 <__udivmodhi4_loop>:
 604:	aa 1f       	adc	r26, r26
 606:	bb 1f       	adc	r27, r27
 608:	a6 17       	cp	r26, r22
 60a:	b7 07       	cpc	r27, r23
 60c:	10 f0       	brcs	.+4      	; 0x612 <__udivmodhi4_ep>
 60e:	a6 1b       	sub	r26, r22
 610:	b7 0b       	sbc	r27, r23

00000612 <__udivmodhi4_ep>:
 612:	88 1f       	adc	r24, r24
 614:	99 1f       	adc	r25, r25
 616:	5a 95       	dec	r21
 618:	a9 f7       	brne	.-22     	; 0x604 <__udivmodhi4_loop>
 61a:	80 95       	com	r24
 61c:	90 95       	com	r25
 61e:	bc 01       	movw	r22, r24
 620:	cd 01       	movw	r24, r26
 622:	08 95       	ret

00000624 <_exit>:
 624:	f8 94       	cli

00000626 <__stop_program>:
 626:	ff cf       	rjmp	.-2      	; 0x626 <__stop_program>
